; Function Attrs: mustprogress uwtable
define internal fastcc void @_ZN11OpenImageIO6v3_1_0L7printlnERSoNS0_17basic_string_viewIcSt11char_traitsIcEEEi(ptr noundef nonnull readonly captures(none) %0, i32 noundef range(i32 0, 2) %1) unnamed_addr #5 {
  %3 = alloca i8, align 1
  %4 = alloca i8, align 1
  %5 = getelementptr inbounds nuw i8, ptr %0, i64 8
  %6 = load i64, ptr %5, align 8, !tbaa !17
  %.not = icmp eq i64 %6, 0
  br i1 %.not, label %.loopexit, label %7

7:                                                ; preds = %2
  %8 = load ptr, ptr @_ZSt4cout, align 8, !tbaa !51
  %9 = getelementptr i8, ptr %8, i64 -24
  %10 = load i64, ptr %9, align 8
  %11 = getelementptr inbounds i8, ptr @_ZSt4cout, i64 %10
  %12 = getelementptr inbounds nuw i8, ptr %11, i64 32
  %13 = load i32, ptr %12, align 8, !tbaa !65
  %14 = icmp eq i32 %13, 0
  br i1 %14, label %15, label %_ZN11OpenImageIO6v3_1_0lsERSoRKNS0_17basic_string_viewIcSt11char_traitsIcEEE.exit

15:                                               ; preds = %7
  %16 = load ptr, ptr %0, align 8, !tbaa !15
  %17 = tail call noundef nonnull align 8 dereferenceable(8) ptr @_ZNSo5writeEPKcl(ptr noundef nonnull align 8 dereferenceable(8) @_ZSt4cout, ptr noundef %16, i64 noundef %6)
  %.pre = load i64, ptr %5, align 8, !tbaa !17
  br label %_ZN11OpenImageIO6v3_1_0lsERSoRKNS0_17basic_string_viewIcSt11char_traitsIcEEE.exit

_ZN11OpenImageIO6v3_1_0lsERSoRKNS0_17basic_string_viewIcSt11char_traitsIcEEE.exit: ; preds = %7, %15
  %18 = phi i64 [ %6, %7 ], [ %.pre, %15 ]
  %19 = load ptr, ptr %0, align 8, !tbaa !15
  %20 = getelementptr i8, ptr %19, i64 %18
  %21 = getelementptr i8, ptr %20, i64 -1
  %22 = load i8, ptr %21, align 1, !tbaa !14
  %.not3 = icmp eq i8 %22, 10
  br i1 %.not3, label %34, label %23

23:                                               ; preds = %_ZN11OpenImageIO6v3_1_0lsERSoRKNS0_17basic_string_viewIcSt11char_traitsIcEEE.exit
  call void @llvm.lifetime.start.p0(i64 1, ptr nonnull %4)
  store i8 10, ptr %4, align 1, !tbaa !14
  %24 = load ptr, ptr @_ZSt4cout, align 8, !tbaa !51
  %25 = getelementptr i8, ptr %24, i64 -24
  %26 = load i64, ptr %25, align 8
  %27 = getelementptr inbounds i8, ptr @_ZSt4cout, i64 %26
  %28 = getelementptr inbounds nuw i8, ptr %27, i64 16
  %29 = load i64, ptr %28, align 8, !tbaa !157
  %.not.i = icmp eq i64 %29, 0
  br i1 %.not.i, label %32, label %30

30:                                               ; preds = %23
  %31 = call noundef nonnull align 8 dereferenceable(8) ptr @_ZSt16__ostream_insertIcSt11char_traitsIcEERSt13basic_ostreamIT_T0_ES6_PKS3_l(ptr noundef nonnull align 8 dereferenceable(8) @_ZSt4cout, ptr noundef nonnull %4, i64 noundef 1)
  br label %_ZStlsISt11char_traitsIcEERSt13basic_ostreamIcT_ES5_c.exit

32:                                               ; preds = %23
  %33 = tail call noundef nonnull align 8 dereferenceable(8) ptr @_ZNSo3putEc(ptr noundef nonnull align 8 dereferenceable(8) @_ZSt4cout, i8 noundef signext 10)
  br label %_ZStlsISt11char_traitsIcEERSt13basic_ostreamIcT_ES5_c.exit

_ZStlsISt11char_traitsIcEERSt13basic_ostreamIcT_ES5_c.exit: ; preds = %30, %32
  call void @llvm.lifetime.end.p0(i64 1, ptr nonnull %4)
  br label %34

34:                                               ; preds = %_ZStlsISt11char_traitsIcEERSt13basic_ostreamIcT_ES5_c.exit, %_ZN11OpenImageIO6v3_1_0lsERSoRKNS0_17basic_string_viewIcSt11char_traitsIcEEE.exit
  %.not2 = icmp eq i32 %1, 0
  br i1 %.not2, label %.loopexit, label %.lr.ph.preheader

.lr.ph.preheader:                                 ; preds = %34
  call void @llvm.lifetime.start.p0(i64 1, ptr nonnull %3)
  store i8 10, ptr %3, align 1, !tbaa !14
  %35 = load ptr, ptr @_ZSt4cout, align 8, !tbaa !51
  %36 = getelementptr i8, ptr %35, i64 -24
  %37 = load i64, ptr %36, align 8
  %gep = getelementptr i8, ptr getelementptr inbounds nuw (i8, ptr @_ZSt4cout, i64 16), i64 %37
  %38 = load i64, ptr %gep, align 8, !tbaa !157
  %.not.i4 = icmp eq i64 %38, 0
  br i1 %.not.i4, label %41, label %39

39:                                               ; preds = %.lr.ph.preheader
  %40 = call noundef nonnull align 8 dereferenceable(8) ptr @_ZSt16__ostream_insertIcSt11char_traitsIcEERSt13basic_ostreamIT_T0_ES6_PKS3_l(ptr noundef nonnull align 8 dereferenceable(8) @_ZSt4cout, ptr noundef nonnull %3, i64 noundef 1)
  br label %_ZStlsISt11char_traitsIcEERSt13basic_ostreamIcT_ES5_c.exit6

41:                                               ; preds = %.lr.ph.preheader
  %42 = call noundef nonnull align 8 dereferenceable(8) ptr @_ZNSo3putEc(ptr noundef nonnull align 8 dereferenceable(8) @_ZSt4cout, i8 noundef signext 10)
  br label %_ZStlsISt11char_traitsIcEERSt13basic_ostreamIcT_ES5_c.exit6

_ZStlsISt11char_traitsIcEERSt13basic_ostreamIcT_ES5_c.exit6: ; preds = %39, %41
  call void @llvm.lifetime.end.p0(i64 1, ptr nonnull %3)
  br label %.loopexit

.loopexit:                                        ; preds = %_ZStlsISt11char_traitsIcEERSt13basic_ostreamIcT_ES5_c.exit6, %34, %2
  ret void
}